target datalayout = "e-m:e-p270:32:32-p271:32:32-p272:64:64-i64:64-i128:128-f80:128-n8:16:32:64-S128"
target triple = "x86_64-pc-linux-gnu"

%struct.mbedtls_ssl_config = type { i32, i32, i8, i8, i8, i8, i8, i8, i8, i8, i8, i8, i16, i8, i8, i8, ptr, i32, ptr, ptr, ptr, ptr, ptr, ptr, ptr, ptr, ptr, ptr, ptr, ptr, ptr, ptr, ptr, ptr, ptr, ptr, ptr, i64, ptr, ptr, ptr, ptr, ptr, ptr, ptr, ptr, %struct.mbedtls_mpi, %struct.mbedtls_mpi, ptr, i64, ptr, i64, ptr, i32, i32, i32, i32, [8 x i8], i32, i32, %union.mbedtls_ssl_user_data_t, ptr, ptr }
%struct.mbedtls_mpi = type { ptr, i16, i16 }
%union.mbedtls_ssl_user_data_t = type { i64 }
%struct.mbedtls_ssl_context = type { ptr, i32, i32, i32, i32, i32, ptr, ptr, ptr, ptr, ptr, ptr, ptr, ptr, ptr, ptr, ptr, ptr, ptr, ptr, ptr, ptr, ptr, ptr, ptr, ptr, ptr, ptr, ptr, ptr, ptr, ptr, ptr, i32, i64, i64, i16, i64, i64, i64, i64, i32, i32, i8, i8, i32, i8, ptr, ptr, ptr, ptr, ptr, ptr, ptr, i32, i64, i64, [8 x i8], i16, ptr, ptr, ptr, i64, i32, i64, [12 x i8], [12 x i8], [32 x i8], i8, i8, ptr, ptr, %union.mbedtls_ssl_user_data_t }
%struct.mbedtls_md_context_t = type { ptr, ptr, ptr }
%struct.mbedtls_ssl_handshake_params = type { i8, i8, i8, i8, i8, i32, i8, i8, i8, i8, ptr, ptr, ptr, ptr, ptr, i8, i8, i8, i8, i16, i16, [20 x i16], ptr, ptr, %struct.mbedtls_dhm_context, %struct.mbedtls_ecdh_context, i16, i64, i32, i8, [1024 x i8], i64, ptr, ptr, i64, i16, ptr, ptr, ptr, ptr, %struct.anon, ptr, i16, i8, i32, i32, i32, ptr, ptr, ptr, i32, ptr, [8 x i8], i8, [32 x i8], i8, i16, %struct.mbedtls_md_context_t, %struct.mbedtls_md_context_t, i16, i8, %union.anon.1, [64 x i8], [1076 x i8], i64, i32, i32, i8, ptr, ptr, %union.anon.4, %struct.mbedtls_ssl_tls13_handshake_secrets, ptr, i64, ptr }
%struct.mbedtls_dhm_context = type { %struct.mbedtls_mpi, %struct.mbedtls_mpi, %struct.mbedtls_mpi, %struct.mbedtls_mpi, %struct.mbedtls_mpi, %struct.mbedtls_mpi, %struct.mbedtls_mpi, %struct.mbedtls_mpi, %struct.mbedtls_mpi, %struct.mbedtls_mpi }
%struct.mbedtls_ecdh_context = type { i8, i32, i32, %union.anon }
%union.anon = type { %struct.mbedtls_ecdh_context_mbed }
%struct.mbedtls_ecdh_context_mbed = type { %struct.mbedtls_ecp_group, %struct.mbedtls_mpi, %struct.mbedtls_ecp_point, %struct.mbedtls_ecp_point, %struct.mbedtls_mpi }
%struct.mbedtls_ecp_group = type { i32, %struct.mbedtls_mpi, %struct.mbedtls_mpi, %struct.mbedtls_mpi, %struct.mbedtls_ecp_point, %struct.mbedtls_mpi, i64, i64, i32, ptr, ptr, ptr, ptr, ptr, i64 }
%struct.mbedtls_ecp_point = type { %struct.mbedtls_mpi, %struct.mbedtls_mpi, %struct.mbedtls_mpi }
%struct.anon = type { i64, i8, [4 x %struct.mbedtls_ssl_hs_buffer], %struct.anon.0 }
%struct.mbedtls_ssl_hs_buffer = type { i8, ptr, i64 }
%struct.anon.0 = type { ptr, i64, i32 }
%union.anon.1 = type { %struct.anon.2 }
%struct.anon.2 = type { i8, [64 x i8], i64 }
%union.anon.4 = type { [64 x i8] }
%struct.mbedtls_ssl_tls13_handshake_secrets = type { [64 x i8], [64 x i8] }

@.str = private unnamed_addr constant [121 x i8] c"generated/home/dtcxzyw/WorkSpace/Projects/compilers/llvm-opt-benchmark/bench/lief/bench_build/mbed_src/library/ssl_tls.c\00", align 1
@.str.25 = private unnamed_addr constant [15 x i8] c"=> renegotiate\00", align 1
@.str.26 = private unnamed_addr constant [22 x i8] c"mbedtls_ssl_handshake\00", align 1
@.str.27 = private unnamed_addr constant [15 x i8] c"<= renegotiate\00", align 1

; Function Attrs: nounwind uwtable
define hidden i32 @mbedtls_ssl_start_renegotiation(ptr noundef %0) #0 {
  %2 = alloca i32, align 4
  %3 = alloca ptr, align 8
  %4 = alloca i32, align 4
  %5 = alloca i32, align 4
  store ptr %0, ptr %3, align 8, !tbaa !27
  call void @llvm.lifetime.start.p0(i64 4, ptr %4) #11
  store i32 -110, ptr %4, align 4, !tbaa !10
  %6 = load ptr, ptr %3, align 8, !tbaa !27
  call void (ptr, i32, ptr, i32, ptr, ...) @mbedtls_debug_print_msg(ptr noundef %6, i32 noundef 2, ptr noundef @.str, i32 noundef 4662, ptr noundef @.str.25)
  %7 = load ptr, ptr %3, align 8, !tbaa !27
  %8 = call i32 @ssl_handshake_init(ptr noundef %7)
  store i32 %8, ptr %4, align 4, !tbaa !10
  %9 = icmp ne i32 %8, 0
  br i1 %9, label %10, label %12

10:                                               ; preds = %1
  %11 = load i32, ptr %4, align 4, !tbaa !10
  store i32 %11, ptr %2, align 4
  store i32 1, ptr %5, align 4
  br label %58

12:                                               ; preds = %1
  %13 = load ptr, ptr %3, align 8, !tbaa !27
  %14 = getelementptr inbounds nuw %struct.mbedtls_ssl_context, ptr %13, i32 0, i32 0
  %15 = load ptr, ptr %14, align 8, !tbaa !30
  %16 = getelementptr inbounds nuw %struct.mbedtls_ssl_config, ptr %15, i32 0, i32 3
  %17 = load i8, ptr %16, align 1, !tbaa !35
  %18 = zext i8 %17 to i32
  %19 = icmp eq i32 %18, 1
  br i1 %19, label %20, label %44

20:                                               ; preds = %12
  %21 = load ptr, ptr %3, align 8, !tbaa !27
  %22 = getelementptr inbounds nuw %struct.mbedtls_ssl_context, ptr %21, i32 0, i32 2
  %23 = load i32, ptr %22, align 4, !tbaa !141
  %24 = icmp eq i32 %23, 3
  br i1 %24, label %25, label %44

25:                                               ; preds = %20
  %26 = load ptr, ptr %3, align 8, !tbaa !27
  %27 = getelementptr inbounds nuw %struct.mbedtls_ssl_context, ptr %26, i32 0, i32 0
  %28 = load ptr, ptr %27, align 8, !tbaa !30
  %29 = getelementptr inbounds nuw %struct.mbedtls_ssl_config, ptr %28, i32 0, i32 2
  %30 = load i8, ptr %29, align 8, !tbaa !110
  %31 = zext i8 %30 to i32
  %32 = icmp eq i32 %31, 1
  br i1 %32, label %33, label %38

33:                                               ; preds = %25
  %34 = load ptr, ptr %3, align 8, !tbaa !27
  %35 = getelementptr inbounds nuw %struct.mbedtls_ssl_context, ptr %34, i32 0, i32 16
  %36 = load ptr, ptr %35, align 8, !tbaa !78
  %37 = getelementptr inbounds nuw %struct.mbedtls_ssl_handshake_params, ptr %36, i32 0, i32 44
  store i32 1, ptr %37, align 4, !tbaa !249
  br label %43

38:                                               ; preds = %25
  %39 = load ptr, ptr %3, align 8, !tbaa !27
  %40 = getelementptr inbounds nuw %struct.mbedtls_ssl_context, ptr %39, i32 0, i32 16
  %41 = load ptr, ptr %40, align 8, !tbaa !78
  %42 = getelementptr inbounds nuw %struct.mbedtls_ssl_handshake_params, ptr %41, i32 0, i32 45
  store i32 1, ptr %42, align 8, !tbaa !250
  br label %43

43:                                               ; preds = %38, %33
  br label %44

44:                                               ; preds = %43, %20, %12
  %45 = load ptr, ptr %3, align 8, !tbaa !27
  %46 = getelementptr inbounds nuw %struct.mbedtls_ssl_context, ptr %45, i32 0, i32 1
  store i32 0, ptr %46, align 8, !tbaa !49
  %47 = load ptr, ptr %3, align 8, !tbaa !27
  %48 = getelementptr inbounds nuw %struct.mbedtls_ssl_context, ptr %47, i32 0, i32 2
  store i32 1, ptr %48, align 4, !tbaa !141
  %49 = load ptr, ptr %3, align 8, !tbaa !27
  %50 = call i32 @mbedtls_ssl_handshake(ptr noundef %49)
  store i32 %50, ptr %4, align 4, !tbaa !10
  %51 = icmp ne i32 %50, 0
  br i1 %51, label %52, label %56

52:                                               ; preds = %44
  %53 = load ptr, ptr %3, align 8, !tbaa !27
  %54 = load i32, ptr %4, align 4, !tbaa !10
  call void @mbedtls_debug_print_ret(ptr noundef %53, i32 noundef 1, ptr noundef @.str, i32 noundef 4685, ptr noundef @.str.26, i32 noundef %54)
  %55 = load i32, ptr %4, align 4, !tbaa !10
  store i32 %55, ptr %2, align 4
  store i32 1, ptr %5, align 4
  br label %58

56:                                               ; preds = %44
  %57 = load ptr, ptr %3, align 8, !tbaa !27
  call void (ptr, i32, ptr, i32, ptr, ...) @mbedtls_debug_print_msg(ptr noundef %57, i32 noundef 2, ptr noundef @.str, i32 noundef 4689, ptr noundef @.str.27)
  store i32 0, ptr %2, align 4
  store i32 1, ptr %5, align 4
  br label %58

58:                                               ; preds = %56, %52, %10
  call void @llvm.lifetime.end.p0(i64 4, ptr %4) #11
  %59 = load i32, ptr %2, align 4
  ret i32 %59
}