; Function Attrs: nounwind uwtable
define hidden i32 @mbedtls_ssl_start_renegotiation(ptr noundef %0) local_unnamed_addr #1 {
  tail call void (ptr, i32, ptr, i32, ptr, ...) @mbedtls_debug_print_msg(ptr noundef %0, i32 noundef 2, ptr noundef nonnull @.str, i32 noundef 4662, ptr noundef nonnull @.str.25) #26
  %2 = tail call fastcc i32 @ssl_handshake_init(ptr noundef %0)
  %.not = icmp eq i32 %2, 0
  br i1 %.not, label %3, label %28

3:                                                ; preds = %1
  %4 = load ptr, ptr %0, align 8, !tbaa !23
  %5 = getelementptr inbounds nuw i8, ptr %4, i64 9
  %6 = load i8, ptr %5, align 1, !tbaa !29
  %7 = icmp eq i8 %6, 1
  br i1 %7, label %8, label %22

8:                                                ; preds = %3
  %9 = getelementptr inbounds nuw i8, ptr %0, i64 12
  %10 = load i32, ptr %9, align 4, !tbaa !123
  %11 = icmp eq i32 %10, 3
  br i1 %11, label %12, label %22

12:                                               ; preds = %8
  %13 = getelementptr inbounds nuw i8, ptr %4, i64 8
  %14 = load i8, ptr %13, align 8, !tbaa !94
  %15 = icmp eq i8 %14, 1
  %16 = getelementptr inbounds nuw i8, ptr %0, i64 112
  %17 = load ptr, ptr %16, align 8, !tbaa !70
  br i1 %15, label %18, label %20

18:                                               ; preds = %12
  %19 = getelementptr inbounds nuw i8, ptr %17, i64 1884
  store i32 1, ptr %19, align 4, !tbaa !224
  br label %22

20:                                               ; preds = %12
  %21 = getelementptr inbounds nuw i8, ptr %17, i64 1888
  store i32 1, ptr %21, align 8, !tbaa !225
  br label %22

22:                                               ; preds = %18, %20, %8, %3
  %23 = getelementptr inbounds nuw i8, ptr %0, i64 8
  store i32 0, ptr %23, align 8, !tbaa !34
  %24 = getelementptr inbounds nuw i8, ptr %0, i64 12
  store i32 1, ptr %24, align 4, !tbaa !123
  %25 = tail call i32 @mbedtls_ssl_handshake(ptr noundef nonnull %0)
  %.not17 = icmp eq i32 %25, 0
  br i1 %.not17, label %27, label %26

26:                                               ; preds = %22
  tail call void @mbedtls_debug_print_ret(ptr noundef nonnull %0, i32 noundef 1, ptr noundef nonnull @.str, i32 noundef 4685, ptr noundef nonnull @.str.26, i32 noundef %25) #26
  br label %28

27:                                               ; preds = %22
  tail call void (ptr, i32, ptr, i32, ptr, ...) @mbedtls_debug_print_msg(ptr noundef nonnull %0, i32 noundef 2, ptr noundef nonnull @.str, i32 noundef 4689, ptr noundef nonnull @.str.27) #26
  br label %28

28:                                               ; preds = %1, %27, %26
  %.0 = phi i32 [ %25, %26 ], [ 0, %27 ], [ %2, %1 ]
  ret i32 %.0
}